; Function Attrs: null_pointer_is_valid sspstrong uwtable
define internal i32 @dissect_ldap_LDAPURL(i1 noundef zeroext %0, ptr noundef %1, i32 noundef %2, ptr noundef %3, ptr noundef %4, i32 noundef %5) #0 {
  %7 = tail call i32 @dissect_ber_octet_string(i1 noundef zeroext %0, ptr noundef %3, ptr noundef %4, ptr noundef %1, i32 noundef %2, i32 noundef %5, ptr noundef null)
  %8 = getelementptr inbounds nuw i8, ptr %3, i64 24
  %9 = load ptr, ptr %8, align 8
  %.not.i = icmp eq ptr %9, null
  br i1 %.not.i, label %proto_item_set_url.exit, label %10

10:                                               ; preds = %6
  %11 = getelementptr inbounds nuw i8, ptr %9, i64 40
  %12 = load ptr, ptr %11, align 8
  %.not5.i = icmp eq ptr %12, null
  br i1 %.not5.i, label %proto_item_set_url.exit, label %13

13:                                               ; preds = %10
  %14 = getelementptr inbounds nuw i8, ptr %12, i64 28
  %15 = load i32, ptr %14, align 4
  %16 = or i32 %15, 4
  store i32 %16, ptr %14, align 4
  br label %proto_item_set_url.exit

proto_item_set_url.exit:                          ; preds = %6, %10, %13
  ret i32 %7
}